; Function Attrs: mustprogress uwtable
define void @_ZN8QuantLib25CallSpecifiedMultiProduct5resetEv(ptr nocapture noundef nonnull align 8 dereferenceable(281) %this) unnamed_addr #0 align 2 {
entry:
  %underlying_ = getelementptr inbounds nuw i8, ptr %this, i64 8
  %0 = load ptr, ptr %underlying_, align 8, !tbaa !6
  %vtable = load ptr, ptr %0, align 8, !tbaa !3
  %vfn = getelementptr inbounds i8, ptr %vtable, i64 56
  %1 = load ptr, ptr %vfn, align 8
  tail call void %1(ptr noundef nonnull align 8 dereferenceable(8) %0)
  %rebate_ = getelementptr inbounds nuw i8, ptr %this, i64 24
  %2 = load ptr, ptr %rebate_, align 8, !tbaa !6
  %vtable3 = load ptr, ptr %2, align 8, !tbaa !3
  %vfn4 = getelementptr inbounds i8, ptr %vtable3, i64 56
  %3 = load ptr, ptr %vfn4, align 8
  tail call void %3(ptr noundef nonnull align 8 dereferenceable(8) %2)
  %strategy_ = getelementptr inbounds nuw i8, ptr %this, i64 16
  %4 = load ptr, ptr %strategy_, align 8, !tbaa !6
  %vtable6 = load ptr, ptr %4, align 8, !tbaa !3
  %vfn7 = getelementptr inbounds i8, ptr %vtable6, i64 32
  %5 = load ptr, ptr %vfn7, align 8
  tail call void %5(ptr noundef nonnull align 8 dereferenceable(8) %4)
  %currentIndex_ = getelementptr inbounds nuw i8, ptr %this, i64 272
  store i64 0, ptr %currentIndex_, align 8, !tbaa !106
  %wasCalled_ = getelementptr inbounds nuw i8, ptr %this, i64 216
  store i8 0, ptr %wasCalled_, align 8, !tbaa !107
  ret void
}